; Function Attrs: nounwind uwtable
define ptr @l_Lean_ofExcept___at_Lean_KeyedDeclsAttribute_init___spec__2___rarg___boxed(ptr noundef %0, ptr noundef %1, ptr noundef %2, ptr noundef %3) #1 {
  %5 = tail call ptr @l_Lean_ofExcept___at_Lean_KeyedDeclsAttribute_init___spec__2___rarg(ptr noundef %0, ptr noundef %1, ptr noundef %2, ptr noundef %3)
  %6 = ptrtoint ptr %2 to i64
  %7 = and i64 %6, 1
  %.not = icmp eq i64 %7, 0
  br i1 %.not, label %8, label %lean_dec.exit9

8:                                                ; preds = %4
  %9 = load i32, ptr %2, align 4, !tbaa !4
  %10 = icmp sgt i32 %9, 1
  br i1 %10, label %11, label %13, !prof !11

11:                                               ; preds = %8
  %12 = add nsw i32 %9, -1
  store i32 %12, ptr %2, align 4, !tbaa !4
  br label %lean_dec.exit9

13:                                               ; preds = %8
  %.not.i = icmp eq i32 %9, 0
  br i1 %.not.i, label %lean_dec.exit9, label %14

14:                                               ; preds = %13
  tail call void @lean_dec_ref_cold(ptr noundef nonnull %2) #6
  br label %lean_dec.exit9

lean_dec.exit9:                                   ; preds = %14, %13, %11, %4
  %15 = ptrtoint ptr %1 to i64
  %16 = and i64 %15, 1
  %.not14 = icmp eq i64 %16, 0
  br i1 %.not14, label %17, label %lean_dec.exit8

17:                                               ; preds = %lean_dec.exit9
  %18 = load i32, ptr %1, align 4, !tbaa !4
  %19 = icmp sgt i32 %18, 1
  br i1 %19, label %20, label %22, !prof !11

20:                                               ; preds = %17
  %21 = add nsw i32 %18, -1
  store i32 %21, ptr %1, align 4, !tbaa !4
  br label %lean_dec.exit8

22:                                               ; preds = %17
  %.not.i10 = icmp eq i32 %18, 0
  br i1 %.not.i10, label %lean_dec.exit8, label %23

23:                                               ; preds = %22
  tail call void @lean_dec_ref_cold(ptr noundef nonnull %1) #6
  br label %lean_dec.exit8

lean_dec.exit8:                                   ; preds = %23, %22, %20, %lean_dec.exit9
  %24 = ptrtoint ptr %0 to i64
  %25 = and i64 %24, 1
  %.not15 = icmp eq i64 %25, 0
  br i1 %.not15, label %26, label %lean_dec.exit

26:                                               ; preds = %lean_dec.exit8
  %27 = load i32, ptr %0, align 4, !tbaa !4
  %28 = icmp sgt i32 %27, 1
  br i1 %28, label %29, label %31, !prof !11

29:                                               ; preds = %26
  %30 = add nsw i32 %27, -1
  store i32 %30, ptr %0, align 4, !tbaa !4
  br label %lean_dec.exit

31:                                               ; preds = %26
  %.not.i12 = icmp eq i32 %27, 0
  br i1 %.not.i12, label %lean_dec.exit, label %32

32:                                               ; preds = %31
  tail call void @lean_dec_ref_cold(ptr noundef nonnull %0) #6
  br label %lean_dec.exit

lean_dec.exit:                                    ; preds = %32, %31, %29, %lean_dec.exit8
  ret ptr %5
}